; Function Attrs: mustprogress nounwind uwtable
define internal fastcc noundef ptr @_ZN4llvm14ImutAVLFactoryINS_16ImutKeyValueInfoIN12_GLOBAL__N_116EquivalenceClassENS_12ImmutableSetIS3_NS_17ImutContainerInfoIS3_EEEEEEE12add_internalERKSt4pairIS3_S7_EPNS_11ImutAVLTreeIS8_EE(ptr noundef nonnull align 8 dereferenceable(80) %0, ptr noundef nonnull align 8 dereferenceable(24) %1, ptr noundef readonly %2) unnamed_addr #1 align 2 {
  %.not.i = icmp eq ptr %2, null
  br i1 %.not.i, label %4, label %6

4:                                                ; preds = %3
  %5 = tail call fastcc noundef ptr @_ZN4llvm14ImutAVLFactoryINS_16ImutKeyValueInfoIN12_GLOBAL__N_116EquivalenceClassENS_12ImmutableSetIS3_NS_17ImutContainerInfoIS3_EEEEEEE10createNodeEPNS_11ImutAVLTreeIS8_EERKSt4pairIS3_S7_ESC_(ptr noundef nonnull align 8 dereferenceable(80) %0, ptr noundef null, ptr noundef nonnull align 8 dereferenceable(24) %1, ptr noundef null)
  br label %common.ret32

6:                                                ; preds = %3
  %7 = getelementptr inbounds nuw i8, ptr %2, i64 48
  %8 = getelementptr inbounds i8, ptr %1, i64 8
  %.val = load i64, ptr %8, align 8
  %9 = getelementptr i8, ptr %2, i64 56
  %.val23 = load i64, ptr %9, align 8
  %10 = icmp eq i64 %.val, %.val23
  br i1 %10, label %11, label %15

11:                                               ; preds = %6
  %12 = getelementptr i8, ptr %2, i64 8
  %.val28 = load ptr, ptr %12, align 8
  %13 = getelementptr i8, ptr %2, i64 16
  %.val31 = load ptr, ptr %13, align 8
  %14 = tail call fastcc noundef ptr @_ZN4llvm14ImutAVLFactoryINS_16ImutKeyValueInfoIN12_GLOBAL__N_116EquivalenceClassENS_12ImmutableSetIS3_NS_17ImutContainerInfoIS3_EEEEEEE10createNodeEPNS_11ImutAVLTreeIS8_EERKSt4pairIS3_S7_ESC_(ptr noundef nonnull align 8 dereferenceable(80) %0, ptr noundef %.val28, ptr noundef nonnull align 8 dereferenceable(24) %1, ptr noundef %.val31)
  br label %common.ret32

15:                                               ; preds = %6
  %16 = icmp ult i64 %.val, %.val23
  %17 = getelementptr i8, ptr %2, i64 8
  %.val27 = load ptr, ptr %17, align 8
  br i1 %16, label %18, label %22

common.ret32:                                     ; preds = %11, %4, %22, %18
  %common.ret32.op = phi ptr [ %21, %18 ], [ %25, %22 ], [ %5, %4 ], [ %14, %11 ]
  ret ptr %common.ret32.op

18:                                               ; preds = %15
  %19 = tail call fastcc noundef ptr @_ZN4llvm14ImutAVLFactoryINS_16ImutKeyValueInfoIN12_GLOBAL__N_116EquivalenceClassENS_12ImmutableSetIS3_NS_17ImutContainerInfoIS3_EEEEEEE12add_internalERKSt4pairIS3_S7_EPNS_11ImutAVLTreeIS8_EE(ptr noundef nonnull align 8 dereferenceable(80) %0, ptr noundef nonnull align 8 dereferenceable(24) %1, ptr noundef %.val27)
  %20 = getelementptr i8, ptr %2, i64 16
  %.val30 = load ptr, ptr %20, align 8
  %21 = tail call fastcc noundef ptr @_ZN4llvm14ImutAVLFactoryINS_16ImutKeyValueInfoIN12_GLOBAL__N_116EquivalenceClassENS_12ImmutableSetIS3_NS_17ImutContainerInfoIS3_EEEEEEE11balanceTreeEPNS_11ImutAVLTreeIS8_EERKSt4pairIS3_S7_ESC_(ptr noundef nonnull align 8 dereferenceable(80) %0, ptr noundef %19, ptr noundef nonnull align 8 dereferenceable(24) %7, ptr noundef %.val30)
  br label %common.ret32

22:                                               ; preds = %15
  %23 = getelementptr i8, ptr %2, i64 16
  %.val29 = load ptr, ptr %23, align 8
  %24 = tail call fastcc noundef ptr @_ZN4llvm14ImutAVLFactoryINS_16ImutKeyValueInfoIN12_GLOBAL__N_116EquivalenceClassENS_12ImmutableSetIS3_NS_17ImutContainerInfoIS3_EEEEEEE12add_internalERKSt4pairIS3_S7_EPNS_11ImutAVLTreeIS8_EE(ptr noundef nonnull align 8 dereferenceable(80) %0, ptr noundef nonnull align 8 dereferenceable(24) %1, ptr noundef %.val29)
  %25 = tail call fastcc noundef ptr @_ZN4llvm14ImutAVLFactoryINS_16ImutKeyValueInfoIN12_GLOBAL__N_116EquivalenceClassENS_12ImmutableSetIS3_NS_17ImutContainerInfoIS3_EEEEEEE11balanceTreeEPNS_11ImutAVLTreeIS8_EERKSt4pairIS3_S7_ESC_(ptr noundef nonnull align 8 dereferenceable(80) %0, ptr noundef %.val27, ptr noundef nonnull align 8 dereferenceable(24) %7, ptr noundef %24)
  br label %common.ret32
}